target datalayout = "e-m:e-p270:32:32-p271:32:32-p272:64:64-i64:64-i128:128-f80:128-n8:16:32:64-S128"
target triple = "x86_64-pc-linux-gnu"

%struct.conn = type { i32, ptr, ptr }

@stderr = external global ptr, align 8
@con = internal global ptr null, align 8
@.str.238 = private unnamed_addr constant [21 x i8] c"Failed to write: %s\0A\00", align 1

; Function Attrs: nounwind uwtable
define internal void @safe_send(ptr noundef %0, i64 noundef %1, i1 noundef zeroext %2) #0 {
  %4 = alloca ptr, align 8
  %5 = alloca i64, align 8
  %6 = alloca i8, align 1
  %7 = alloca i64, align 8
  %8 = alloca ptr, align 8
  %9 = alloca i64, align 8
  %10 = alloca i64, align 8
  store ptr %0, ptr %4, align 8, !tbaa !4
  store i64 %1, ptr %5, align 8, !tbaa !36
  %11 = zext i1 %2 to i8
  store i8 %11, ptr %6, align 1, !tbaa !31
  call void @llvm.lifetime.start.p0(i64 8, ptr %7) #12
  store i64 0, ptr %7, align 8, !tbaa !36
  call void @llvm.lifetime.start.p0(i64 8, ptr %8) #12
  %12 = load ptr, ptr %4, align 8, !tbaa !4
  store ptr %12, ptr %8, align 8, !tbaa !8
  br label %13

13:                                               ; preds = %61, %3
  call void @llvm.lifetime.start.p0(i64 8, ptr %9) #12
  %14 = load i64, ptr %5, align 8, !tbaa !36
  %15 = load i64, ptr %7, align 8, !tbaa !36
  %16 = sub i64 %14, %15
  store i64 %16, ptr %9, align 8, !tbaa !36
  %17 = load i8, ptr %6, align 1, !tbaa !31, !range !34, !noundef !35
  %18 = trunc i8 %17 to i1
  br i1 %18, label %19, label %28

19:                                               ; preds = %13
  %20 = load i64, ptr %9, align 8, !tbaa !36
  %21 = icmp ugt i64 %20, 1024
  br i1 %21, label %22, label %27

22:                                               ; preds = %19
  %23 = call i32 @rand() #12
  %24 = srem i32 %23, 1023
  %25 = add nsw i32 %24, 1
  %26 = sext i32 %25 to i64
  store i64 %26, ptr %9, align 8, !tbaa !36
  br label %27

27:                                               ; preds = %22, %19
  br label %28

28:                                               ; preds = %27, %13
  call void @llvm.lifetime.start.p0(i64 8, ptr %10) #12
  %29 = load ptr, ptr @con, align 8, !tbaa !39
  %30 = getelementptr inbounds nuw %struct.conn, ptr %29, i32 0, i32 2
  %31 = load ptr, ptr %30, align 8, !tbaa !46
  %32 = load ptr, ptr @con, align 8, !tbaa !39
  %33 = load ptr, ptr %8, align 8, !tbaa !8
  %34 = load i64, ptr %7, align 8, !tbaa !36
  %35 = getelementptr inbounds i8, ptr %33, i64 %34
  %36 = load i64, ptr %9, align 8, !tbaa !36
  %37 = call i64 %31(ptr noundef %32, ptr noundef %35, i64 noundef %36)
  store i64 %37, ptr %10, align 8, !tbaa !36
  %38 = load i64, ptr %10, align 8, !tbaa !36
  %39 = icmp eq i64 %38, -1
  br i1 %39, label %40, label %51

40:                                               ; preds = %28
  %41 = call ptr @__errno_location() #16
  %42 = load i32, ptr %41, align 4, !tbaa !10
  %43 = icmp ne i32 %42, 4
  br i1 %43, label %44, label %50

44:                                               ; preds = %40
  %45 = load ptr, ptr @stderr, align 8, !tbaa !37
  %46 = call ptr @__errno_location() #16
  %47 = load i32, ptr %46, align 4, !tbaa !10
  %48 = call ptr @strerror(i32 noundef %47) #12
  %49 = call i32 (ptr, ptr, ...) @fprintf(ptr noundef %45, ptr noundef @.str.238, ptr noundef %48) #12
  call void @abort() #13
  unreachable

50:                                               ; preds = %40
  br label %60

51:                                               ; preds = %28
  %52 = load i8, ptr %6, align 1, !tbaa !31, !range !34, !noundef !35
  %53 = trunc i8 %52 to i1
  br i1 %53, label %54, label %56

54:                                               ; preds = %51
  %55 = call i32 @usleep(i32 noundef 100)
  br label %56

56:                                               ; preds = %54, %51
  %57 = load i64, ptr %10, align 8, !tbaa !36
  %58 = load i64, ptr %7, align 8, !tbaa !36
  %59 = add nsw i64 %58, %57
  store i64 %59, ptr %7, align 8, !tbaa !36
  br label %60

60:                                               ; preds = %56, %50
  call void @llvm.lifetime.end.p0(i64 8, ptr %10) #12
  call void @llvm.lifetime.end.p0(i64 8, ptr %9) #12
  br label %61

61:                                               ; preds = %60
  %62 = load i64, ptr %7, align 8, !tbaa !36
  %63 = load i64, ptr %5, align 8, !tbaa !36
  %64 = icmp ult i64 %62, %63
  br i1 %64, label %13, label %65, !llvm.loop !81

65:                                               ; preds = %61
  call void @llvm.lifetime.end.p0(i64 8, ptr %8) #12
  call void @llvm.lifetime.end.p0(i64 8, ptr %7) #12
  ret void
}