; Function Attrs: nounwind uwtable
define internal fastcc void @safe_send(ptr noundef %0, i64 noundef %1, i1 noundef zeroext %2) unnamed_addr #0 {
  br i1 %2, label %.split, label %.split.us

.split.us:                                        ; preds = %3, %16
  %.0.us = phi i64 [ %.1.us, %16 ], [ 0, %3 ]
  %4 = sub i64 %1, %.0.us
  %5 = load ptr, ptr @con, align 8, !tbaa !35
  %6 = getelementptr inbounds nuw i8, ptr %5, i64 16
  %7 = load ptr, ptr %6, align 8, !tbaa !39
  %8 = getelementptr inbounds i8, ptr %0, i64 %.0.us
  %9 = tail call i64 %7(ptr noundef %5, ptr noundef %8, i64 noundef %4) #21
  %10 = icmp eq i64 %9, -1
  br i1 %10, label %13, label %11

11:                                               ; preds = %.split.us
  %12 = add nsw i64 %9, %.0.us
  br label %16

13:                                               ; preds = %.split.us
  %14 = tail call ptr @__errno_location() #25
  %15 = load i32, ptr %14, align 4, !tbaa !9
  %.not.us = icmp eq i32 %15, 4
  br i1 %.not.us, label %16, label %.split18.us

16:                                               ; preds = %13, %11
  %.1.us = phi i64 [ %.0.us, %13 ], [ %12, %11 ]
  %17 = icmp ult i64 %.1.us, %1
  br i1 %17, label %.split.us, label %.split20.us, !llvm.loop !49

.split:                                           ; preds = %3, %41
  %.0 = phi i64 [ %.1, %41 ], [ 0, %3 ]
  %18 = sub i64 %1, %.0
  %19 = icmp ugt i64 %18, 1024
  br i1 %19, label %20, label %25

20:                                               ; preds = %.split
  %21 = tail call i32 @rand() #21
  %22 = srem i32 %21, 1023
  %23 = add nsw i32 %22, 1
  %24 = sext i32 %23 to i64
  br label %25

25:                                               ; preds = %20, %.split
  %.014 = phi i64 [ %24, %20 ], [ %18, %.split ]
  %26 = load ptr, ptr @con, align 8, !tbaa !35
  %27 = getelementptr inbounds nuw i8, ptr %26, i64 16
  %28 = load ptr, ptr %27, align 8, !tbaa !39
  %29 = getelementptr inbounds i8, ptr %0, i64 %.0
  %30 = tail call i64 %28(ptr noundef %26, ptr noundef %29, i64 noundef %.014) #21
  %31 = icmp eq i64 %30, -1
  br i1 %31, label %32, label %38

32:                                               ; preds = %25
  %33 = tail call ptr @__errno_location() #25
  %34 = load i32, ptr %33, align 4, !tbaa !9
  %.not = icmp eq i32 %34, 4
  br i1 %.not, label %41, label %.split18.us

.split18.us:                                      ; preds = %13, %32
  %.us-phi = phi i32 [ %34, %32 ], [ %15, %13 ]
  %35 = load ptr, ptr @stderr, align 8, !tbaa !44
  %36 = tail call ptr @strerror(i32 noundef %.us-phi) #21
  %37 = tail call i32 (ptr, ptr, ...) @fprintf(ptr noundef %35, ptr noundef nonnull @.str.238, ptr noundef %36) #26
  tail call void @abort() #22
  unreachable

38:                                               ; preds = %25
  %39 = tail call i32 @usleep(i32 noundef 100) #21
  %40 = add nsw i64 %30, %.0
  br label %41

41:                                               ; preds = %32, %38
  %.1 = phi i64 [ %.0, %32 ], [ %40, %38 ]
  %42 = icmp ult i64 %.1, %1
  br i1 %42, label %.split, label %.split20.us, !llvm.loop !49

.split20.us:                                      ; preds = %16, %41
  ret void
}